; Function Attrs: nounwind uwtable
define internal fastcc i32 @ffi_checkctype(ptr noundef %0, ptr noundef %1, ptr noundef %2) unnamed_addr #0 {
  %4 = alloca %struct.CPState, align 8
  %5 = getelementptr inbounds nuw i8, ptr %0, i64 32
  %6 = load ptr, ptr %5, align 8, !tbaa !44
  %7 = getelementptr inbounds nuw i8, ptr %0, i64 40
  %8 = load ptr, ptr %7, align 8, !tbaa !4
  %9 = icmp ult ptr %6, %8
  br i1 %9, label %11, label %10

10:                                               ; preds = %11, %3
  tail call void @lj_err_argtype(ptr noundef nonnull %0, i32 noundef 1, ptr noundef nonnull @.str.4) #10
  unreachable

11:                                               ; preds = %3
  %12 = load i64, ptr %6, align 8, !tbaa !23
  %13 = ashr i64 %12, 47
  switch i64 %13, label %10 [
    i64 -5, label %14
    i64 -11, label %29
  ]

14:                                               ; preds = %11
  %15 = and i64 %12, 140737488355327
  %16 = inttoptr i64 %15 to ptr
  call void @llvm.lifetime.start.p0(i64 128, ptr nonnull %4) #9
  %17 = getelementptr inbounds nuw i8, ptr %4, i64 72
  store ptr %0, ptr %17, align 8, !tbaa !60
  %18 = getelementptr inbounds nuw i8, ptr %4, i64 80
  store ptr %1, ptr %18, align 8, !tbaa !65
  %19 = getelementptr inbounds nuw i8, ptr %16, i64 24
  %20 = getelementptr inbounds nuw i8, ptr %4, i64 96
  store ptr %19, ptr %20, align 8, !tbaa !66
  %21 = getelementptr inbounds nuw i8, ptr %4, i64 32
  store ptr %19, ptr %21, align 8, !tbaa !67
  %22 = getelementptr inbounds nuw i8, ptr %4, i64 88
  store ptr %2, ptr %22, align 8, !tbaa !68
  %23 = getelementptr inbounds nuw i8, ptr %4, i64 116
  store i32 18, ptr %23, align 4, !tbaa !69
  %24 = call i32 @lj_cparse(ptr noundef nonnull %4) #9
  %.not32 = icmp eq i32 %24, 0
  br i1 %.not32, label %26, label %25

25:                                               ; preds = %14
  call void @lj_err_throw(ptr noundef nonnull %0, i32 noundef %24) #10
  unreachable

26:                                               ; preds = %14
  %27 = getelementptr inbounds nuw i8, ptr %4, i64 12
  %28 = load i32, ptr %27, align 4, !tbaa !70
  call void @llvm.lifetime.end.p0(i64 128, ptr nonnull %4) #9
  br label %.thread

29:                                               ; preds = %11
  %.not = icmp ne ptr %2, null
  %30 = icmp ult ptr %2, %8
  %or.cond = and i1 %.not, %30
  br i1 %or.cond, label %31, label %32

31:                                               ; preds = %29
  tail call void @lj_err_arg(ptr noundef nonnull %0, i32 noundef 1, i32 noundef 3176) #10
  unreachable

32:                                               ; preds = %29
  %33 = and i64 %12, 140737488355327
  %34 = inttoptr i64 %33 to ptr
  %35 = getelementptr inbounds nuw i8, ptr %34, i64 10
  %36 = load i16, ptr %35, align 2, !tbaa !48
  %37 = icmp eq i16 %36, 22
  br i1 %37, label %38, label %41

38:                                               ; preds = %32
  %39 = getelementptr inbounds nuw i8, ptr %34, i64 16
  %40 = load i32, ptr %39, align 4, !tbaa !43
  br label %.thread

41:                                               ; preds = %32
  %42 = zext i16 %36 to i32
  br label %.thread

.thread:                                          ; preds = %41, %38, %26
  %.0 = phi i32 [ %28, %26 ], [ %42, %41 ], [ %40, %38 ]
  ret i32 %.0
}